target datalayout = "e-m:e-p270:32:32-p271:32:32-p272:64:64-i64:64-i128:128-f80:128-n8:16:32:64-S128"
target triple = "x86_64-pc-linux-gnu"

%struct.SDL_AtomicInt = type { i32 }
%struct.SDL_JoystickDriver = type { ptr, ptr, ptr, ptr, ptr, ptr, ptr, ptr, ptr, ptr, ptr, ptr, ptr, ptr, ptr, ptr, ptr, ptr, ptr, ptr, ptr }

@SDL_joysticks_initialized = internal global i8 0, align 1
@SDL_joystick_lock_pending = internal global %struct.SDL_AtomicInt zeroinitializer, align 4
@SDL_joystick_lock = internal global ptr null, align 8
@SDL_joysticks_locked = internal global i32 0, align 4
@.str = private unnamed_addr constant [37 x i8] c"SDL_JOYSTICK_ALLOW_BACKGROUND_EVENTS\00", align 1
@SDL_joystick_drivers = internal global [3 x ptr] [ptr @SDL_HIDAPI_JoystickDriver, ptr @SDL_LINUX_JoystickDriver, ptr @SDL_VIRTUAL_JoystickDriver], align 16
@blacklist_devices = internal global { ptr, i32, i32, ptr, ptr, i32, i32, ptr, i32, [4 x i8], ptr, i8, [7 x i8] } { ptr @.str.23, i32 0, i32 0, ptr null, ptr @.str.24, i32 0, i32 0, ptr null, i32 60, [4 x i8] zeroinitializer, ptr @initial_blacklist_devices, i8 0, [7 x i8] zeroinitializer }, align 8
@gamecube_devices = internal global { ptr, i32, i32, ptr, ptr, i32, i32, ptr, i32, [4 x i8], ptr, i8, [7 x i8] } { ptr @.str.29, i32 0, i32 0, ptr null, ptr @.str.30, i32 0, i32 0, ptr null, i32 8, [4 x i8] zeroinitializer, ptr @initial_gamecube_devices, i8 0, [7 x i8] zeroinitializer }, align 8
@rog_gamepad_mice = internal global { ptr, i32, i32, ptr, ptr, i32, i32, ptr, i32, [4 x i8], ptr, i8, [7 x i8] } { ptr @.str.32, i32 0, i32 0, ptr null, ptr @.str.33, i32 0, i32 0, ptr null, i32 7, [4 x i8] zeroinitializer, ptr @initial_rog_gamepad_mice, i8 0, [7 x i8] zeroinitializer }, align 8
@throttle_devices = internal global { ptr, i32, i32, ptr, ptr, i32, i32, ptr, i32, [4 x i8], ptr, i8, [7 x i8] } { ptr @.str.35, i32 0, i32 0, ptr null, ptr @.str.36, i32 0, i32 0, ptr null, i32 3, [4 x i8] zeroinitializer, ptr @initial_throttle_devices, i8 0, [7 x i8] zeroinitializer }, align 8
@wheel_devices = internal global { ptr, i32, i32, ptr, ptr, i32, i32, ptr, i32, [4 x i8], ptr, i8, [7 x i8] } { ptr @.str.38, i32 0, i32 0, ptr null, ptr @.str.39, i32 0, i32 0, ptr null, i32 69, [4 x i8] zeroinitializer, ptr @initial_wheel_devices, i8 0, [7 x i8] zeroinitializer }, align 8

; Function Attrs: nounwind uwtable
define hidden void @SDL_UnlockJoysticks_REAL() #0 {
  %1 = alloca i8, align 1
  %2 = alloca ptr, align 8
  call void @llvm.lifetime.start.p0(i64 1, ptr %1) #7
  store i8 0, ptr %1, align 1
  %3 = load i32, ptr @SDL_joysticks_locked, align 4
  %4 = add nsw i32 %3, -1
  store i32 %4, ptr @SDL_joysticks_locked, align 4
  %5 = load i8, ptr @SDL_joysticks_initialized, align 1, !range !3, !noundef !4
  %6 = trunc i8 %5 to i1
  br i1 %6, label %15, label %7

7:                                                ; preds = %0
  %8 = load i32, ptr @SDL_joysticks_locked, align 4
  %9 = icmp ne i32 %8, 0
  br i1 %9, label %14, label %10

10:                                               ; preds = %7
  %11 = call i32 @SDL_GetAtomicInt_REAL(ptr noundef @SDL_joystick_lock_pending)
  %12 = icmp eq i32 %11, 0
  br i1 %12, label %13, label %14

13:                                               ; preds = %10
  store i8 1, ptr %1, align 1
  br label %14

14:                                               ; preds = %13, %10, %7
  br label %15

15:                                               ; preds = %14, %0
  %16 = load i8, ptr %1, align 1, !range !3, !noundef !4
  %17 = trunc i8 %16 to i1
  br i1 %17, label %18, label %24

18:                                               ; preds = %15
  call void @llvm.lifetime.start.p0(i64 8, ptr %2) #7
  %19 = load ptr, ptr @SDL_joystick_lock, align 8
  store ptr %19, ptr %2, align 8
  %20 = load ptr, ptr %2, align 8
  call void @SDL_LockMutex_REAL(ptr noundef %20)
  %21 = load ptr, ptr @SDL_joystick_lock, align 8
  call void @SDL_UnlockMutex_REAL(ptr noundef %21)
  store ptr null, ptr @SDL_joystick_lock, align 8
  %22 = load ptr, ptr %2, align 8
  call void @SDL_UnlockMutex_REAL(ptr noundef %22)
  %23 = load ptr, ptr %2, align 8
  call void @SDL_DestroyMutex_REAL(ptr noundef %23)
  call void @llvm.lifetime.end.p0(i64 8, ptr %2) #7
  br label %26

24:                                               ; preds = %15
  %25 = load ptr, ptr @SDL_joystick_lock, align 8
  call void @SDL_UnlockMutex_REAL(ptr noundef %25)
  br label %26

26:                                               ; preds = %24, %18
  call void @llvm.lifetime.end.p0(i64 1, ptr %1) #7
  ret void
}

; Function Attrs: nounwind uwtable
define hidden void @SDL_LockJoysticks_REAL() #0 {
  %1 = call i32 @SDL_AddAtomicInt_REAL(ptr noundef @SDL_joystick_lock_pending, i32 noundef 1)
  %2 = load ptr, ptr @SDL_joystick_lock, align 8
  call void @SDL_LockMutex_REAL(ptr noundef %2)
  %3 = call i32 @SDL_AddAtomicInt_REAL(ptr noundef @SDL_joystick_lock_pending, i32 noundef -1)
  %4 = load i32, ptr @SDL_joysticks_locked, align 4
  %5 = add nsw i32 %4, 1
  store i32 %5, ptr @SDL_joysticks_locked, align 4
  ret void
}

; Function Attrs: nounwind uwtable
define hidden zeroext i1 @SDL_InitJoysticks() #0 {
  %1 = alloca i1, align 1
  %2 = alloca i32, align 4
  %3 = alloca i8, align 1
  %4 = alloca i32, align 4
  call void @llvm.lifetime.start.p0(i64 4, ptr %2) #7
  call void @llvm.lifetime.start.p0(i64 1, ptr %3) #7
  store i8 0, ptr %3, align 1
  %5 = load ptr, ptr @SDL_joystick_lock, align 8
  %6 = icmp eq ptr %5, null
  br i1 %6, label %7, label %9

7:                                                ; preds = %0
  %8 = call ptr @SDL_CreateMutex_REAL()
  store ptr %8, ptr @SDL_joystick_lock, align 8
  br label %9

9:                                                ; preds = %7, %0
  %10 = call zeroext i1 @SDL_InitSubSystem_REAL(i32 noundef 16384)
  br i1 %10, label %12, label %11

11:                                               ; preds = %9
  store i1 false, ptr %1, align 1
  store i32 1, ptr %4, align 4
  br label %39

12:                                               ; preds = %9
  call void @SDL_LockJoysticks_REAL()
  store i8 1, ptr @SDL_joysticks_initialized, align 1
  call void @SDL_LoadVIDPIDList(ptr noundef @old_xboxone_controllers)
  call void @SDL_LoadVIDPIDList(ptr noundef @arcadestick_devices)
  call void @SDL_LoadVIDPIDList(ptr noundef @blacklist_devices)
  call void @SDL_LoadVIDPIDList(ptr noundef @flightstick_devices)
  call void @SDL_LoadVIDPIDList(ptr noundef @gamecube_devices)
  call void @SDL_LoadVIDPIDList(ptr noundef @rog_gamepad_mice)
  call void @SDL_LoadVIDPIDList(ptr noundef @throttle_devices)
  call void @SDL_LoadVIDPIDList(ptr noundef @wheel_devices)
  call void @SDL_LoadVIDPIDList(ptr noundef @zero_centered_devices)
  %13 = call zeroext i1 @SDL_InitGamepadMappings()
  %14 = call zeroext i1 @SDL_AddHintCallback_REAL(ptr noundef @.str, ptr noundef @SDL_JoystickAllowBackgroundEventsChanged, ptr noundef null)
  call void @SDL_InitSteamVirtualGamepadInfo()
  store i32 0, ptr %2, align 4
  br label %15

15:                                               ; preds = %29, %12
  %16 = load i32, ptr %2, align 4
  %17 = sext i32 %16 to i64
  %18 = icmp ult i64 %17, 3
  br i1 %18, label %19, label %32

19:                                               ; preds = %15
  %20 = load i32, ptr %2, align 4
  %21 = sext i32 %20 to i64
  %22 = getelementptr inbounds [3 x ptr], ptr @SDL_joystick_drivers, i64 0, i64 %21
  %23 = load ptr, ptr %22, align 8
  %24 = getelementptr inbounds nuw %struct.SDL_JoystickDriver, ptr %23, i32 0, i32 0
  %25 = load ptr, ptr %24, align 8
  %26 = call zeroext i1 %25()
  br i1 %26, label %27, label %28

27:                                               ; preds = %19
  store i8 1, ptr %3, align 1
  br label %28

28:                                               ; preds = %27, %19
  br label %29

29:                                               ; preds = %28
  %30 = load i32, ptr %2, align 4
  %31 = add nsw i32 %30, 1
  store i32 %31, ptr %2, align 4
  br label %15, !llvm.loop !5

32:                                               ; preds = %15
  call void @SDL_UnlockJoysticks_REAL()
  %33 = load i8, ptr %3, align 1, !range !3, !noundef !4
  %34 = trunc i8 %33 to i1
  br i1 %34, label %36, label %35

35:                                               ; preds = %32
  call void @SDL_QuitJoysticks()
  br label %36

36:                                               ; preds = %35, %32
  %37 = load i8, ptr %3, align 1, !range !3, !noundef !4
  %38 = trunc i8 %37 to i1
  store i1 %38, ptr %1, align 1
  store i32 1, ptr %4, align 4
  br label %39

39:                                               ; preds = %36, %11
  call void @llvm.lifetime.end.p0(i64 1, ptr %3) #7
  call void @llvm.lifetime.end.p0(i64 4, ptr %2) #7
  %40 = load i1, ptr %1, align 1
  ret i1 %40
}