; Function Attrs: nounwind uwtable
define hidden noundef zeroext i1 @SDL_InitJoysticks() local_unnamed_addr #1 {
  %1 = load ptr, ptr @SDL_joystick_lock, align 8
  %2 = icmp eq ptr %1, null
  br i1 %2, label %3, label %5

3:                                                ; preds = %0
  %4 = tail call ptr @SDL_CreateMutex_REAL() #13
  store ptr %4, ptr @SDL_joystick_lock, align 8
  br label %5

5:                                                ; preds = %3, %0
  %6 = tail call zeroext i1 @SDL_InitSubSystem_REAL(i32 noundef 16384) #13
  br i1 %6, label %7, label %32

7:                                                ; preds = %5
  %8 = tail call i32 @SDL_AddAtomicInt_REAL(ptr noundef nonnull @SDL_joystick_lock_pending, i32 noundef 1) #13
  %9 = load ptr, ptr @SDL_joystick_lock, align 8
  tail call void @SDL_LockMutex_REAL(ptr noundef %9) #13
  %10 = tail call i32 @SDL_AddAtomicInt_REAL(ptr noundef nonnull @SDL_joystick_lock_pending, i32 noundef -1) #13
  %11 = load i32, ptr @SDL_joysticks_locked, align 4
  %12 = add nsw i32 %11, 1
  store i32 %12, ptr @SDL_joysticks_locked, align 4
  store i1 true, ptr @SDL_joysticks_initialized, align 1
  tail call void @SDL_LoadVIDPIDList(ptr noundef nonnull @old_xboxone_controllers)
  tail call void @SDL_LoadVIDPIDList(ptr noundef nonnull @arcadestick_devices)
  tail call void @SDL_LoadVIDPIDList(ptr noundef nonnull @blacklist_devices)
  tail call void @SDL_LoadVIDPIDList(ptr noundef nonnull @flightstick_devices)
  tail call void @SDL_LoadVIDPIDList(ptr noundef nonnull @gamecube_devices)
  tail call void @SDL_LoadVIDPIDList(ptr noundef nonnull @rog_gamepad_mice)
  tail call void @SDL_LoadVIDPIDList(ptr noundef nonnull @throttle_devices)
  tail call void @SDL_LoadVIDPIDList(ptr noundef nonnull @wheel_devices)
  tail call void @SDL_LoadVIDPIDList(ptr noundef nonnull @zero_centered_devices)
  %13 = tail call zeroext i1 @SDL_InitGamepadMappings() #13
  %14 = tail call zeroext i1 @SDL_AddHintCallback_REAL(ptr noundef nonnull @.str, ptr noundef nonnull @SDL_JoystickAllowBackgroundEventsChanged, ptr noundef null) #13
  tail call void @SDL_InitSteamVirtualGamepadInfo() #13
  br label %15

15:                                               ; preds = %7, %15
  %indvars.iv = phi i64 [ 0, %7 ], [ %indvars.iv.next, %15 ]
  %.09 = phi i1 [ false, %7 ], [ %spec.select, %15 ]
  %16 = getelementptr inbounds nuw [3 x ptr], ptr @SDL_joystick_drivers, i64 0, i64 %indvars.iv
  %17 = load ptr, ptr %16, align 8
  %18 = load ptr, ptr %17, align 8
  %19 = tail call zeroext i1 %18() #13
  %spec.select = select i1 %19, i1 true, i1 %.09
  %indvars.iv.next = add nuw nsw i64 %indvars.iv, 1
  %exitcond.not = icmp eq i64 %indvars.iv.next, 3
  br i1 %exitcond.not, label %20, label %15, !llvm.loop !3

20:                                               ; preds = %15
  %21 = load i32, ptr @SDL_joysticks_locked, align 4
  %22 = add nsw i32 %21, -1
  store i32 %22, ptr @SDL_joysticks_locked, align 4
  %.b4.i = load i1, ptr @SDL_joysticks_initialized, align 1
  %23 = icmp ne i32 %22, 0
  %or.cond.i = select i1 %.b4.i, i1 true, i1 %23
  br i1 %or.cond.i, label %.critedge.i, label %24

24:                                               ; preds = %20
  %25 = tail call i32 @SDL_GetAtomicInt_REAL(ptr noundef nonnull @SDL_joystick_lock_pending) #13
  %26 = icmp eq i32 %25, 0
  br i1 %26, label %27, label %.critedge.i

27:                                               ; preds = %24
  %28 = load ptr, ptr @SDL_joystick_lock, align 8
  tail call void @SDL_LockMutex_REAL(ptr noundef %28) #13
  %29 = load ptr, ptr @SDL_joystick_lock, align 8
  tail call void @SDL_UnlockMutex_REAL(ptr noundef %29) #13
  store ptr null, ptr @SDL_joystick_lock, align 8
  tail call void @SDL_UnlockMutex_REAL(ptr noundef %28) #13
  tail call void @SDL_DestroyMutex_REAL(ptr noundef %28) #13
  br label %SDL_UnlockJoysticks_REAL.exit

.critedge.i:                                      ; preds = %24, %20
  %30 = load ptr, ptr @SDL_joystick_lock, align 8
  tail call void @SDL_UnlockMutex_REAL(ptr noundef %30) #13
  br label %SDL_UnlockJoysticks_REAL.exit

SDL_UnlockJoysticks_REAL.exit:                    ; preds = %27, %.critedge.i
  br i1 %spec.select, label %32, label %31

31:                                               ; preds = %SDL_UnlockJoysticks_REAL.exit
  tail call void @SDL_QuitJoysticks()
  br label %32

32:                                               ; preds = %SDL_UnlockJoysticks_REAL.exit, %31, %5
  %.06 = phi i1 [ false, %5 ], [ false, %31 ], [ true, %SDL_UnlockJoysticks_REAL.exit ]
  ret i1 %.06
}